target datalayout = "e-m:e-p270:32:32-p271:32:32-p272:64:64-i64:64-i128:128-f80:128-n8:16:32:64-S128"
target triple = "x86_64-pc-linux-gnu"

%class.Jipopt = type { %"class.Ipopt::TNLP.base", ptr, ptr, i32, i32, i32, i32, i32, ptr, ptr, ptr, ptr, ptr, ptr, ptr, ptr, ptr, i8, i8, %"class.Ipopt::SmartPtr", ptr, ptr, ptr, ptr, ptr, ptr, ptr, ptr, ptr, ptr, ptr }
%"class.Ipopt::TNLP.base" = type { %"class.Ipopt::ReferencedObject.base" }
%"class.Ipopt::ReferencedObject.base" = type <{ ptr, i32 }>
%"class.Ipopt::SmartPtr" = type { ptr }

; Function Attrs: mustprogress uwtable
define noundef zeroext i1 @_ZN6Jipopt21intermediate_callbackEN5Ipopt13AlgorithmModeEiddddddddiPKNS0_9IpoptDataEPNS0_25IpoptCalculatedQuantitiesE(ptr noundef nonnull align 8 dereferenceable(232) %0, i32 noundef %1, i32 noundef %2, double noundef %3, double noundef %4, double noundef %5, double noundef %6, double noundef %7, double noundef %8, double noundef %9, double noundef %10, i32 noundef %11, ptr noundef %12, ptr noundef %13) unnamed_addr #4 align 2 {
  %15 = alloca ptr, align 8
  %16 = alloca i32, align 4
  %17 = alloca i32, align 4
  %18 = alloca double, align 8
  %19 = alloca double, align 8
  %20 = alloca double, align 8
  %21 = alloca double, align 8
  %22 = alloca double, align 8
  %23 = alloca double, align 8
  %24 = alloca double, align 8
  %25 = alloca double, align 8
  %26 = alloca i32, align 4
  %27 = alloca ptr, align 8
  %28 = alloca ptr, align 8
  store ptr %0, ptr %15, align 8, !tbaa !3
  store i32 %1, ptr %16, align 4, !tbaa !118
  store i32 %2, ptr %17, align 4, !tbaa !12
  store double %3, ptr %18, align 8, !tbaa !112
  store double %4, ptr %19, align 8, !tbaa !112
  store double %5, ptr %20, align 8, !tbaa !112
  store double %6, ptr %21, align 8, !tbaa !112
  store double %7, ptr %22, align 8, !tbaa !112
  store double %8, ptr %23, align 8, !tbaa !112
  store double %9, ptr %24, align 8, !tbaa !112
  store double %10, ptr %25, align 8, !tbaa !112
  store i32 %11, ptr %26, align 4, !tbaa !12
  store ptr %12, ptr %27, align 8, !tbaa !116
  store ptr %13, ptr %28, align 8, !tbaa !117
  %29 = load ptr, ptr %15, align 8
  %30 = getelementptr inbounds nuw %class.Jipopt, ptr %29, i32 0, i32 1
  %31 = load ptr, ptr %30, align 8, !tbaa !16
  %32 = getelementptr inbounds nuw %class.Jipopt, ptr %29, i32 0, i32 2
  %33 = load ptr, ptr %32, align 8, !tbaa !24
  %34 = getelementptr inbounds nuw %class.Jipopt, ptr %29, i32 0, i32 27
  %35 = load ptr, ptr %34, align 8, !tbaa !51
  %36 = load i32, ptr %16, align 4, !tbaa !118
  %37 = load i32, ptr %17, align 4, !tbaa !12
  %38 = load double, ptr %18, align 8, !tbaa !112
  %39 = load double, ptr %19, align 8, !tbaa !112
  %40 = load double, ptr %20, align 8, !tbaa !112
  %41 = load double, ptr %21, align 8, !tbaa !112
  %42 = load double, ptr %22, align 8, !tbaa !112
  %43 = load double, ptr %23, align 8, !tbaa !112
  %44 = load double, ptr %24, align 8, !tbaa !112
  %45 = load double, ptr %25, align 8, !tbaa !112
  %46 = load i32, ptr %26, align 4, !tbaa !12
  %47 = load ptr, ptr %27, align 8, !tbaa !116
  %48 = load ptr, ptr %28, align 8, !tbaa !117
  %49 = call noundef zeroext i8 (ptr, ptr, ptr, ...) @_ZN7JNIEnv_17CallBooleanMethodEP8_jobjectP10_jmethodIDz(ptr noundef nonnull align 8 dereferenceable(8) %31, ptr noundef %33, ptr noundef %35, i32 noundef %36, i32 noundef %37, double noundef %38, double noundef %39, double noundef %40, double noundef %41, double noundef %42, double noundef %43, double noundef %44, double noundef %45, i32 noundef %46, ptr noundef %47, ptr noundef %48)
  %50 = icmp ne i8 %49, 0
  ret i1 %50
}