; Function Attrs: mustprogress uwtable
define noundef zeroext i1 @_ZN6Jipopt21intermediate_callbackEN5Ipopt13AlgorithmModeEiddddddddiPKNS0_9IpoptDataEPNS0_25IpoptCalculatedQuantitiesE(ptr noundef nonnull readonly align 8 captures(none) dereferenceable(232) %0, i32 noundef %1, i32 noundef %2, double noundef %3, double noundef %4, double noundef %5, double noundef %6, double noundef %7, double noundef %8, double noundef %9, double noundef %10, i32 noundef %11, ptr noundef %12, ptr noundef %13) unnamed_addr #3 align 2 {
  %15 = getelementptr inbounds nuw i8, ptr %0, i64 16
  %16 = load ptr, ptr %15, align 8, !tbaa !10
  %17 = getelementptr inbounds nuw i8, ptr %0, i64 24
  %18 = load ptr, ptr %17, align 8, !tbaa !20
  %19 = getelementptr inbounds nuw i8, ptr %0, i64 200
  %20 = load ptr, ptr %19, align 8, !tbaa !62
  %21 = tail call noundef zeroext i8 (ptr, ptr, ptr, ...) @_ZN7JNIEnv_17CallBooleanMethodEP8_jobjectP10_jmethodIDz(ptr noundef nonnull align 8 dereferenceable(8) %16, ptr noundef %18, ptr noundef %20, i32 noundef %1, i32 noundef %2, double noundef %3, double noundef %4, double noundef %5, double noundef %6, double noundef %7, double noundef %8, double noundef %9, double noundef %10, i32 noundef %11, ptr noundef %12, ptr noundef %13)
  %22 = icmp ne i8 %21, 0
  ret i1 %22
}